target datalayout = "e-m:e-p270:32:32-p271:32:32-p272:64:64-i64:64-i128:128-f80:128-n8:16:32:64-S128"
target triple = "x86_64-pc-linux-gnu"

%struct.AVFilterContext = type { ptr, ptr, ptr, ptr, ptr, i32, ptr, ptr, i32, ptr, ptr, i32, i32, ptr, ptr, ptr, ptr, i32, ptr, i32, i32 }
%struct.DynamicAudioNormalizerContext = type { ptr, %struct.FFBufQueue, i32, i32, i32, i32, i32, i32, double, ptr, double, double, double, double, double, ptr, ptr, ptr, ptr, i32, i32, i32, ptr, %struct.AVChannelLayout, i64, ptr, ptr, ptr, ptr, ptr, ptr, ptr, [6 x double] }
%struct.FFBufQueue = type { [302 x ptr], i16, i16 }
%struct.AVChannelLayout = type { i32, i32, %union.anon.1, ptr }
%union.anon.1 = type { i64 }

@.str.51 = private unnamed_addr constant [30 x i8] c"Assertion %s failed at %s:%d\0A\00", align 1
@.str.52 = private unnamed_addr constant [17 x i8] c"queue->available\00", align 1
@.str.53 = private unnamed_addr constant [28 x i8] c"./libavfilter/bufferqueue.h\00", align 1

; Function Attrs: inlinehint nounwind uwtable
define internal ptr @ff_bufqueue_get(ptr noundef %0) #3 {
  %2 = alloca ptr, align 8
  %3 = alloca ptr, align 8
  store ptr %0, ptr %2, align 8, !tbaa !85
  call void @llvm.lifetime.start.p0(i64 8, ptr %3) #11
  %4 = load ptr, ptr %2, align 8, !tbaa !85
  %5 = getelementptr inbounds nuw %struct.FFBufQueue, ptr %4, i32 0, i32 0
  %6 = load ptr, ptr %2, align 8, !tbaa !85
  %7 = getelementptr inbounds nuw %struct.FFBufQueue, ptr %6, i32 0, i32 1
  %8 = load i16, ptr %7, align 8, !tbaa !89
  %9 = zext i16 %8 to i64
  %10 = getelementptr inbounds nuw [302 x ptr], ptr %5, i64 0, i64 %9
  %11 = load ptr, ptr %10, align 8, !tbaa !64
  store ptr %11, ptr %3, align 8, !tbaa !64
  br label %12

12:                                               ; preds = %1
  %13 = load ptr, ptr %2, align 8, !tbaa !85
  %14 = getelementptr inbounds nuw %struct.FFBufQueue, ptr %13, i32 0, i32 2
  %15 = load i16, ptr %14, align 2, !tbaa !87
  %16 = icmp ne i16 %15, 0
  br i1 %16, label %18, label %17

17:                                               ; preds = %12
  call void (ptr, i32, ptr, ...) @av_log(ptr noundef null, i32 noundef 0, ptr noundef @.str.51, ptr noundef @.str.52, ptr noundef @.str.53, i32 noundef 101)
  call void @abort() #14
  unreachable

18:                                               ; preds = %12
  br label %19

19:                                               ; preds = %18
  br label %20

20:                                               ; preds = %19
  %21 = load ptr, ptr %2, align 8, !tbaa !85
  %22 = getelementptr inbounds nuw %struct.FFBufQueue, ptr %21, i32 0, i32 2
  %23 = load i16, ptr %22, align 2, !tbaa !87
  %24 = add i16 %23, -1
  store i16 %24, ptr %22, align 2, !tbaa !87
  %25 = load ptr, ptr %2, align 8, !tbaa !85
  %26 = getelementptr inbounds nuw %struct.FFBufQueue, ptr %25, i32 0, i32 0
  %27 = load ptr, ptr %2, align 8, !tbaa !85
  %28 = getelementptr inbounds nuw %struct.FFBufQueue, ptr %27, i32 0, i32 1
  %29 = load i16, ptr %28, align 8, !tbaa !89
  %30 = zext i16 %29 to i64
  %31 = getelementptr inbounds nuw [302 x ptr], ptr %26, i64 0, i64 %30
  store ptr null, ptr %31, align 8, !tbaa !64
  %32 = load ptr, ptr %2, align 8, !tbaa !85
  %33 = getelementptr inbounds nuw %struct.FFBufQueue, ptr %32, i32 0, i32 1
  %34 = load i16, ptr %33, align 8, !tbaa !89
  %35 = zext i16 %34 to i32
  %36 = add nsw i32 %35, 1
  %37 = srem i32 %36, 302
  %38 = trunc i32 %37 to i16
  %39 = load ptr, ptr %2, align 8, !tbaa !85
  %40 = getelementptr inbounds nuw %struct.FFBufQueue, ptr %39, i32 0, i32 1
  store i16 %38, ptr %40, align 8, !tbaa !89
  %41 = load ptr, ptr %3, align 8, !tbaa !64
  call void @llvm.lifetime.end.p0(i64 8, ptr %3) #11
  ret ptr %41
}

; Function Attrs: inlinehint nounwind uwtable
define internal void @ff_bufqueue_discard_all(ptr noundef %0) #3 {
  %2 = alloca ptr, align 8
  %3 = alloca ptr, align 8
  store ptr %0, ptr %2, align 8, !tbaa !85
  br label %4

4:                                                ; preds = %9, %1
  %5 = load ptr, ptr %2, align 8, !tbaa !85
  %6 = getelementptr inbounds nuw %struct.FFBufQueue, ptr %5, i32 0, i32 2
  %7 = load i16, ptr %6, align 2, !tbaa !87
  %8 = icmp ne i16 %7, 0
  br i1 %8, label %9, label %12

9:                                                ; preds = %4
  call void @llvm.lifetime.start.p0(i64 8, ptr %3) #11
  %10 = load ptr, ptr %2, align 8, !tbaa !85
  %11 = call ptr @ff_bufqueue_get(ptr noundef %10)
  store ptr %11, ptr %3, align 8, !tbaa !64
  call void @av_frame_free(ptr noundef %3)
  call void @llvm.lifetime.end.p0(i64 8, ptr %3) #11
  br label %4, !llvm.loop !88

12:                                               ; preds = %4
  ret void
}

; Function Attrs: cold nounwind optsize uwtable
define internal void @uninit(ptr noundef %0) #0 {
  %2 = alloca ptr, align 8
  %3 = alloca ptr, align 8
  %4 = alloca i32, align 4
  store ptr %0, ptr %2, align 8, !tbaa !4
  call void @llvm.lifetime.start.p0(i64 8, ptr %3) #11
  %5 = load ptr, ptr %2, align 8, !tbaa !4
  %6 = getelementptr inbounds nuw %struct.AVFilterContext, ptr %5, i32 0, i32 9
  %7 = load ptr, ptr %6, align 8, !tbaa !9
  store ptr %7, ptr %3, align 8, !tbaa !22
  %8 = load ptr, ptr %3, align 8, !tbaa !22
  %9 = getelementptr inbounds nuw %struct.DynamicAudioNormalizerContext, ptr %8, i32 0, i32 15
  call void @av_freep(ptr noundef %9)
  %10 = load ptr, ptr %3, align 8, !tbaa !22
  %11 = getelementptr inbounds nuw %struct.DynamicAudioNormalizerContext, ptr %10, i32 0, i32 16
  call void @av_freep(ptr noundef %11)
  %12 = load ptr, ptr %3, align 8, !tbaa !22
  %13 = getelementptr inbounds nuw %struct.DynamicAudioNormalizerContext, ptr %12, i32 0, i32 17
  call void @av_freep(ptr noundef %13)
  call void @llvm.lifetime.start.p0(i64 4, ptr %4) #11
  store i32 0, ptr %4, align 4, !tbaa !35
  br label %14

14:                                               ; preds = %74, %1
  %15 = load i32, ptr %4, align 4, !tbaa !35
  %16 = load ptr, ptr %3, align 8, !tbaa !22
  %17 = getelementptr inbounds nuw %struct.DynamicAudioNormalizerContext, ptr %16, i32 0, i32 19
  %18 = load i32, ptr %17, align 8, !tbaa !36
  %19 = icmp slt i32 %15, %18
  br i1 %19, label %21, label %20

20:                                               ; preds = %14
  call void @llvm.lifetime.end.p0(i64 4, ptr %4) #11
  br label %77

21:                                               ; preds = %14
  %22 = load ptr, ptr %3, align 8, !tbaa !22
  %23 = getelementptr inbounds nuw %struct.DynamicAudioNormalizerContext, ptr %22, i32 0, i32 25
  %24 = load ptr, ptr %23, align 8, !tbaa !37
  %25 = icmp ne ptr %24, null
  br i1 %25, label %26, label %34

26:                                               ; preds = %21
  %27 = load ptr, ptr %3, align 8, !tbaa !22
  %28 = getelementptr inbounds nuw %struct.DynamicAudioNormalizerContext, ptr %27, i32 0, i32 25
  %29 = load ptr, ptr %28, align 8, !tbaa !37
  %30 = load i32, ptr %4, align 4, !tbaa !35
  %31 = sext i32 %30 to i64
  %32 = getelementptr inbounds ptr, ptr %29, i64 %31
  %33 = load ptr, ptr %32, align 8, !tbaa !38
  call void @cqueue_free(ptr noundef %33)
  br label %34

34:                                               ; preds = %26, %21
  %35 = load ptr, ptr %3, align 8, !tbaa !22
  %36 = getelementptr inbounds nuw %struct.DynamicAudioNormalizerContext, ptr %35, i32 0, i32 26
  %37 = load ptr, ptr %36, align 8, !tbaa !39
  %38 = icmp ne ptr %37, null
  br i1 %38, label %39, label %47

39:                                               ; preds = %34
  %40 = load ptr, ptr %3, align 8, !tbaa !22
  %41 = getelementptr inbounds nuw %struct.DynamicAudioNormalizerContext, ptr %40, i32 0, i32 26
  %42 = load ptr, ptr %41, align 8, !tbaa !39
  %43 = load i32, ptr %4, align 4, !tbaa !35
  %44 = sext i32 %43 to i64
  %45 = getelementptr inbounds ptr, ptr %42, i64 %44
  %46 = load ptr, ptr %45, align 8, !tbaa !38
  call void @cqueue_free(ptr noundef %46)
  br label %47

47:                                               ; preds = %39, %34
  %48 = load ptr, ptr %3, align 8, !tbaa !22
  %49 = getelementptr inbounds nuw %struct.DynamicAudioNormalizerContext, ptr %48, i32 0, i32 27
  %50 = load ptr, ptr %49, align 8, !tbaa !40
  %51 = icmp ne ptr %50, null
  br i1 %51, label %52, label %60

52:                                               ; preds = %47
  %53 = load ptr, ptr %3, align 8, !tbaa !22
  %54 = getelementptr inbounds nuw %struct.DynamicAudioNormalizerContext, ptr %53, i32 0, i32 27
  %55 = load ptr, ptr %54, align 8, !tbaa !40
  %56 = load i32, ptr %4, align 4, !tbaa !35
  %57 = sext i32 %56 to i64
  %58 = getelementptr inbounds ptr, ptr %55, i64 %57
  %59 = load ptr, ptr %58, align 8, !tbaa !38
  call void @cqueue_free(ptr noundef %59)
  br label %60

60:                                               ; preds = %52, %47
  %61 = load ptr, ptr %3, align 8, !tbaa !22
  %62 = getelementptr inbounds nuw %struct.DynamicAudioNormalizerContext, ptr %61, i32 0, i32 28
  %63 = load ptr, ptr %62, align 8, !tbaa !41
  %64 = icmp ne ptr %63, null
  br i1 %64, label %65, label %73

65:                                               ; preds = %60
  %66 = load ptr, ptr %3, align 8, !tbaa !22
  %67 = getelementptr inbounds nuw %struct.DynamicAudioNormalizerContext, ptr %66, i32 0, i32 28
  %68 = load ptr, ptr %67, align 8, !tbaa !41
  %69 = load i32, ptr %4, align 4, !tbaa !35
  %70 = sext i32 %69 to i64
  %71 = getelementptr inbounds ptr, ptr %68, i64 %70
  %72 = load ptr, ptr %71, align 8, !tbaa !38
  call void @cqueue_free(ptr noundef %72)
  br label %73

73:                                               ; preds = %65, %60
  br label %74

74:                                               ; preds = %73
  %75 = load i32, ptr %4, align 4, !tbaa !35
  %76 = add nsw i32 %75, 1
  store i32 %76, ptr %4, align 4, !tbaa !35
  br label %14, !llvm.loop !42

77:                                               ; preds = %20
  %78 = load ptr, ptr %3, align 8, !tbaa !22
  %79 = getelementptr inbounds nuw %struct.DynamicAudioNormalizerContext, ptr %78, i32 0, i32 25
  call void @av_freep(ptr noundef %79)
  %80 = load ptr, ptr %3, align 8, !tbaa !22
  %81 = getelementptr inbounds nuw %struct.DynamicAudioNormalizerContext, ptr %80, i32 0, i32 26
  call void @av_freep(ptr noundef %81)
  %82 = load ptr, ptr %3, align 8, !tbaa !22
  %83 = getelementptr inbounds nuw %struct.DynamicAudioNormalizerContext, ptr %82, i32 0, i32 27
  call void @av_freep(ptr noundef %83)
  %84 = load ptr, ptr %3, align 8, !tbaa !22
  %85 = getelementptr inbounds nuw %struct.DynamicAudioNormalizerContext, ptr %84, i32 0, i32 28
  call void @av_freep(ptr noundef %85)
  %86 = load ptr, ptr %3, align 8, !tbaa !22
  %87 = getelementptr inbounds nuw %struct.DynamicAudioNormalizerContext, ptr %86, i32 0, i32 29
  %88 = load ptr, ptr %87, align 8, !tbaa !44
  call void @cqueue_free(ptr noundef %88)
  %89 = load ptr, ptr %3, align 8, !tbaa !22
  %90 = getelementptr inbounds nuw %struct.DynamicAudioNormalizerContext, ptr %89, i32 0, i32 29
  store ptr null, ptr %90, align 8, !tbaa !44
  %91 = load ptr, ptr %3, align 8, !tbaa !22
  %92 = getelementptr inbounds nuw %struct.DynamicAudioNormalizerContext, ptr %91, i32 0, i32 18
  call void @av_freep(ptr noundef %92)
  %93 = load ptr, ptr %3, align 8, !tbaa !22
  %94 = getelementptr inbounds nuw %struct.DynamicAudioNormalizerContext, ptr %93, i32 0, i32 23
  call void @av_channel_layout_uninit(ptr noundef %94)
  %95 = load ptr, ptr %3, align 8, !tbaa !22
  %96 = getelementptr inbounds nuw %struct.DynamicAudioNormalizerContext, ptr %95, i32 0, i32 1
  call void @ff_bufqueue_discard_all(ptr noundef %96)
  %97 = load ptr, ptr %3, align 8, !tbaa !22
  %98 = getelementptr inbounds nuw %struct.DynamicAudioNormalizerContext, ptr %97, i32 0, i32 30
  call void @av_frame_free(ptr noundef %98)
  %99 = load ptr, ptr %3, align 8, !tbaa !22
  %100 = getelementptr inbounds nuw %struct.DynamicAudioNormalizerContext, ptr %99, i32 0, i32 31
  %101 = load ptr, ptr %100, align 8, !tbaa !45
  call void @av_expr_free(ptr noundef %101)
  %102 = load ptr, ptr %3, align 8, !tbaa !22
  %103 = getelementptr inbounds nuw %struct.DynamicAudioNormalizerContext, ptr %102, i32 0, i32 31
  store ptr null, ptr %103, align 8, !tbaa !45
  call void @llvm.lifetime.end.p0(i64 8, ptr %3) #11
  ret void
}