; Function Attrs: cold nounwind optsize uwtable
define internal void @uninit(ptr noundef readonly captures(none) %0) #0 {
  %2 = alloca ptr, align 8
  %3 = getelementptr inbounds nuw i8, ptr %0, i64 72
  %4 = load ptr, ptr %3, align 8, !tbaa !4
  %5 = getelementptr inbounds nuw i8, ptr %4, i64 2512
  tail call void @av_freep(ptr noundef nonnull %5) #15
  %6 = getelementptr inbounds nuw i8, ptr %4, i64 2520
  tail call void @av_freep(ptr noundef nonnull %6) #15
  %7 = getelementptr inbounds nuw i8, ptr %4, i64 2528
  tail call void @av_freep(ptr noundef nonnull %7) #15
  %8 = getelementptr inbounds nuw i8, ptr %4, i64 2544
  %9 = load i32, ptr %8, align 8, !tbaa !31
  %10 = icmp sgt i32 %9, 0
  br i1 %10, label %.lr.ph, label %._crit_edge

.lr.ph:                                           ; preds = %1
  %11 = getelementptr inbounds nuw i8, ptr %4, i64 2600
  %12 = getelementptr inbounds nuw i8, ptr %4, i64 2608
  %13 = getelementptr inbounds nuw i8, ptr %4, i64 2616
  %14 = getelementptr inbounds nuw i8, ptr %4, i64 2624
  br label %41

._crit_edge:                                      ; preds = %61, %1
  %15 = getelementptr inbounds nuw i8, ptr %4, i64 2600
  tail call void @av_freep(ptr noundef nonnull %15) #15
  %16 = getelementptr inbounds nuw i8, ptr %4, i64 2608
  tail call void @av_freep(ptr noundef nonnull %16) #15
  %17 = getelementptr inbounds nuw i8, ptr %4, i64 2616
  tail call void @av_freep(ptr noundef nonnull %17) #15
  %18 = getelementptr inbounds nuw i8, ptr %4, i64 2624
  tail call void @av_freep(ptr noundef nonnull %18) #15
  %19 = getelementptr inbounds nuw i8, ptr %4, i64 2632
  %20 = load ptr, ptr %19, align 8, !tbaa !32
  tail call fastcc void @cqueue_free(ptr noundef %20)
  store ptr null, ptr %19, align 8, !tbaa !32
  %21 = getelementptr inbounds nuw i8, ptr %4, i64 2536
  tail call void @av_freep(ptr noundef nonnull %21) #15
  %22 = getelementptr inbounds nuw i8, ptr %4, i64 2568
  tail call void @av_channel_layout_uninit(ptr noundef nonnull %22) #15
  %23 = getelementptr inbounds nuw i8, ptr %4, i64 8
  %24 = getelementptr inbounds nuw i8, ptr %4, i64 2426
  %25 = load i16, ptr %24, align 2, !tbaa !33
  %.not2.i = icmp eq i16 %25, 0
  br i1 %.not2.i, label %ff_bufqueue_discard_all.exit, label %ff_bufqueue_get.exit.lr.ph.i

ff_bufqueue_get.exit.lr.ph.i:                     ; preds = %._crit_edge
  %26 = getelementptr inbounds nuw i8, ptr %4, i64 2424
  br label %ff_bufqueue_get.exit.i

ff_bufqueue_get.exit.i:                           ; preds = %ff_bufqueue_get.exit.i, %ff_bufqueue_get.exit.lr.ph.i
  %27 = phi i16 [ %25, %ff_bufqueue_get.exit.lr.ph.i ], [ %37, %ff_bufqueue_get.exit.i ]
  call void @llvm.lifetime.start.p0(i64 8, ptr nonnull %2) #15
  %28 = load i16, ptr %26, align 8, !tbaa !34
  %29 = zext i16 %28 to i64
  %30 = getelementptr inbounds nuw [302 x ptr], ptr %23, i64 0, i64 %29
  %31 = load ptr, ptr %30, align 8, !tbaa !35
  %32 = add i16 %27, -1
  store i16 %32, ptr %24, align 2, !tbaa !33
  store ptr null, ptr %30, align 8, !tbaa !35
  %33 = zext i16 %28 to i32
  %34 = add nuw nsw i32 %33, 1
  %35 = urem i32 %34, 302
  %36 = trunc nuw nsw i32 %35 to i16
  store i16 %36, ptr %26, align 8, !tbaa !34
  store ptr %31, ptr %2, align 8, !tbaa !35
  call void @av_frame_free(ptr noundef nonnull %2) #15
  call void @llvm.lifetime.end.p0(i64 8, ptr nonnull %2) #15
  %37 = load i16, ptr %24, align 2, !tbaa !33
  %.not.i = icmp eq i16 %37, 0
  br i1 %.not.i, label %ff_bufqueue_discard_all.exit, label %ff_bufqueue_get.exit.i, !llvm.loop !36

ff_bufqueue_discard_all.exit:                     ; preds = %ff_bufqueue_get.exit.i, %._crit_edge
  %38 = getelementptr inbounds nuw i8, ptr %4, i64 2640
  call void @av_frame_free(ptr noundef nonnull %38) #15
  %39 = getelementptr inbounds nuw i8, ptr %4, i64 2648
  %40 = load ptr, ptr %39, align 8, !tbaa !38
  call void @av_expr_free(ptr noundef %40) #15
  store ptr null, ptr %39, align 8, !tbaa !38
  ret void

41:                                               ; preds = %.lr.ph, %61
  %indvars.iv = phi i64 [ 0, %.lr.ph ], [ %indvars.iv.next, %61 ]
  %42 = load ptr, ptr %11, align 8, !tbaa !39
  %.not = icmp eq ptr %42, null
  br i1 %.not, label %46, label %43

43:                                               ; preds = %41
  %44 = getelementptr inbounds nuw ptr, ptr %42, i64 %indvars.iv
  %45 = load ptr, ptr %44, align 8, !tbaa !40
  tail call fastcc void @cqueue_free(ptr noundef %45)
  br label %46

46:                                               ; preds = %43, %41
  %47 = load ptr, ptr %12, align 8, !tbaa !41
  %.not34 = icmp eq ptr %47, null
  br i1 %.not34, label %51, label %48

48:                                               ; preds = %46
  %49 = getelementptr inbounds nuw ptr, ptr %47, i64 %indvars.iv
  %50 = load ptr, ptr %49, align 8, !tbaa !40
  tail call fastcc void @cqueue_free(ptr noundef %50)
  br label %51

51:                                               ; preds = %48, %46
  %52 = load ptr, ptr %13, align 8, !tbaa !42
  %.not35 = icmp eq ptr %52, null
  br i1 %.not35, label %56, label %53

53:                                               ; preds = %51
  %54 = getelementptr inbounds nuw ptr, ptr %52, i64 %indvars.iv
  %55 = load ptr, ptr %54, align 8, !tbaa !40
  tail call fastcc void @cqueue_free(ptr noundef %55)
  br label %56

56:                                               ; preds = %53, %51
  %57 = load ptr, ptr %14, align 8, !tbaa !43
  %.not36 = icmp eq ptr %57, null
  br i1 %.not36, label %61, label %58

58:                                               ; preds = %56
  %59 = getelementptr inbounds nuw ptr, ptr %57, i64 %indvars.iv
  %60 = load ptr, ptr %59, align 8, !tbaa !40
  tail call fastcc void @cqueue_free(ptr noundef %60)
  br label %61

61:                                               ; preds = %56, %58
  %indvars.iv.next = add nuw nsw i64 %indvars.iv, 1
  %62 = load i32, ptr %8, align 8, !tbaa !31
  %63 = sext i32 %62 to i64
  %64 = icmp slt i64 %indvars.iv.next, %63
  br i1 %64, label %41, label %._crit_edge, !llvm.loop !44
}